(dp1
I66
I0
sI67
I1
sI73
I2
sI74
I3
sI75
I4
sI76
I5
sI77
I6
sI78
I7
sI79
I8
sI80
I9
sI81
I10
sI82
I11
sI83
I12
sI84
I13
sI85
I14
sI86
I15
sI87
I16
sI88
I17
sI93
I18
sI103
I19
sI477
I20
sI478
I21
sI479
I22
sI480
I23
sI481
I24
sI482
I25
sI483
I26
sI484
I27
sI485
I28
sI486
I29
sI487
I30
sI488
I31
sI489
I32
sI490
I33
sI491
I34
sI492
I35
sI493
I36
sI494
I37
sI495
I38
sI496
I39
sI497
I40
sI498
I41
sI499
I42
sI500
I43
sI501
I44
sI502
I45
sI503
I46
sI504
I47
sI505
I48
sI506
I49
sI507
I50
sI508
I51
sI509
I52
sI510
I53
sI511
I54
sI512
I55
sI513
I56
sI514
I57
sI515
I58
sI516
I59
sI517
I60
sI518
I61
sI519
I62
sI520
I63
sI521
I64
sI522
I65
sI523
I66
sI524
I67
sI525
I68
sI526
I69
sI527
I70
sI528
I71
sI529
I72
sI530
I73
sI531
I74
sI532
I75
sI533
I76
sI534
I77
sI535
I78
sI536
I79
sI537
I80
sI538
I81
sI539
I82
sI540
I83
sI541
I84
sI542
I85
sI543
I86
sI544
I87
sI545
I88
sI546
I89
sI547
I90
sI548
I91
sI549
I92
sI550
I93
sI551
I94
sI552
I95
sI553
I96
sI554
I97
sI555
I98
sI556
I99
sI557
I100
sI558
I101
sI559
I102
sI560
I103
sI561
I104
sI562
I105
sI563
I106
sI564
I107
sI565
I108
sI566
I109
sI567
I110
sI568
I111
sI569
I112
sI570
I113
sI571
I114
sI572
I115
sI573
I116
sI574
I117
sI575
I118
sI576
I119
sI577
I120
sI578
I121
sI579
I122
sI580
I123
sI581
I124
sI582
I125
sI583
I126
sI584
I127
sI585
I128
sI586
I129
sI587
I130
sI588
I131
sI589
I132
sI590
I133
sI591
I134
sI592
I135
sI593
I136
sI594
I137
sI595
I138
sI596
I139
sI597
I140
sI598
I141
sI599
I142
sI600
I143
sI601
I144
sI602
I145
sI603
I146
sI604
I147
sI605
I148
sI606
I149
sI607
I150
sI608
I151
sI609
I152
sI610
I153
sI611
I154
sI612
I155
sI613
I156
sI614
I157
sI615
I158
sI616
I159
sI617
I160
sI618
I161
sI619
I162
sI620
I163
sI621
I164
sI622
I165
sI623
I166
sI624
I167
sI625
I168
sI626
I169
sI627
I170
sI628
I171
sI629
I172
sI630
I173
sI631
I174
sI632
I175
sI633
I176
sI634
I177
sI635
I178
sI636
I179
sI637
I180
sI638
I181
sI639
I182
sI640
I183
sI641
I184
sI642
I185
sI643
I186
sI644
I187
sI645
I188
sI646
I189
sI647
I190
sI648
I191
sI649
I192
sI650
I193
sI651
I194
sI652
I195
sI653
I196
sI654
I197
sI655
I198
sI656
I199
sI657
I200
sI658
I201
sI659
I202
sI660
I203
sI661
I204
sI662
I205
sI663
I206
sI664
I207
sI665
I208
sI666
I209
sI667
I210
sI668
I211
sI669
I212
sI670
I213
sI671
I214
sI672
I215
sI673
I216
sI674
I217
sI675
I218
sI676
I219
sI677
I220
sI678
I221
sI679
I222
sI680
I223
sI681
I224
sI682
I225
sI683
I226
sI684
I227
sI685
I228
sI686
I229
sI687
I230
sI688
I231
sI689
I232
sI690
I233
sI691
I234
sI692
I235
sI693
I236
sI694
I237
sI695
I238
sI696
I239
sI697
I240
sI698
I241
sI699
I242
sI700
I243
sI701
I244
sI702
I245
sI703
I246
sI704
I247
sI705
I248
sI706
I249
sI707
I250
sI708
I251
sI709
I252
sI711
I253
sI712
I254
sI713
I255
sI714
I256
sI715
I257
sI716
I258
sI717
I259
sI718
I260
sI719
I261
sI720
I262
sI721
I263
sI722
I264
sI723
I265
sI724
I266
sI725
I267
sI726
I268
sI727
I269
sI728
I270
sI729
I271
sI730
I272
sI731
I273
sI732
I274
sI733
I275
sI734
I276
sI735
I277
sI736
I278
sI737
I279
sI738
I280
sI739
I281
sI740
I282
sI741
I283
sI742
I284
sI743
I285
sI744
I286
sI745
I287
sI746
I288
sI747
I289
sI748
I290
sI749
I291
sI750
I292
sI751
I293
sI752
I294
sI753
I295
sI754
I296
sI755
I297
sI756
I298
sI757
I299
sI758
I300
sI759
I301
sI760
I302
sI761
I303
sI762
I304
sI763
I305
sI764
I306
sI765
I307
sI766
I308
sI767
I309
sI768
I310
sI769
I311
sI770
I312
sI771
I313
sI772
I314
sI773
I315
sI774
I316
sI775
I317
sI776
I318
sI777
I319
sI778
I320
sI779
I321
sI780
I322
sI781
I323
sI782
I324
sI783
I325
sI784
I326
sI785
I327
sI786
I328
sI787
I329
sI788
I330
sI789
I331
sI790
I332
sI791
I333
sI792
I334
sI793
I335
sI794
I336
sI795
I337
sI796
I338
sI797
I339
sI798
I340
sI799
I341
sI800
I342
sI801
I343
sI802
I344
sI803
I345
sI804
I346
sI805
I347
sI806
I348
sI807
I349
sI808
I350
sI809
I351
sI810
I352
sI811
I353
sI812
I354
sI813
I355
sI814
I356
sI815
I357
sI908
I358
sI909
I359
sI910
I360
sI911
I361
sI912
I362
sI913
I363
sI914
I364
sI915
I365
sI916
I366
sI917
I367
sI918
I368
sI919
I369
sI920
I370
sI921
I371
sI922
I372
sI923
I373
sI924
I374
sI925
I375
sI926
I376
sI927
I377
sI928
I378
sI929
I379
sI930
I380
sI931
I381
sI932
I382
sI933
I383
sI934
I384
sI935
I385
sI936
I386
sI937
I387
sI938
I388
sI939
I389
sI940
I390
sI941
I391
sI942
I392
sI943
I393
sI944
I394
sI945
I395
sI946
I396
sI947
I397
sI948
I398
sI949
I399
sI950
I400
sI951
I401
sI952
I402
sI953
I403
sI954
I404
sI1021
I405
sI1022
I406
sI1023
I407
sI1024
I408
sI1025
I409
sI1026
I410
sI1027
I411
sI1028
I412
sI1029
I413
sI1030
I414
sI1031
I415
sI1032
I416
sI1033
I417
sI1034
I418
sI1035
I419
sI1036
I420
sI1037
I421
sI1038
I422
sI1039
I423
sI1040
I424
sI1041
I425
sI1042
I426
sI1043
I427
sI1044
I428
sI1045
I429
sI1046
I430
sI1047
I431
sI1048
I432
sI1049
I433
sI1050
I434
sI1051
I435
sI1052
I436
sI1053
I437
sI1054
I438
sI1055
I439
sI1056
I440
sI1057
I441
sI1058
I442
sI1059
I443
sI1060
I444
sI1061
I445
sI1062
I446
sI1063
I447
sI1064
I448
sI1065
I449
sI1066
I450
sI1067
I451
sI1068
I452
sI1069
I453
sI1070
I454
sI1071
I455
sI1072
I456
sI1073
I457
sI1074
I458
sI1075
I459
sI1076
I460
sI1077
I461
sI1078
I462
sI1079
I463
sI1080
I464
sI1081
I465
sI1082
I466
sI1083
I467
sI1084
I468
sI1085
I469
sI1086
I470
sI1087
I471
sI1088
I472
sI1089
I473
sI1090
I474
sI1091
I475
sI1092
I476
sI1093
I477
sI1094
I478
sI1095
I479
sI1096
I480
sI1097
I481
sI1098
I482
sI1099
I483
sI1100
I484
sI1101
I485
sI1102
I486
sI1103
I487
sI1104
I488
sI1105
I489
sI1106
I490
sI1107
I491
sI1108
I492
sI1109
I493
sI1110
I494
sI1111
I495
sI1112
I496
sI1113
I497
sI1114
I498
sI1115
I499
sI1116
I500
sI1117
I501
sI1118
I502
sI1119
I503
sI1120
I504
sI1121
I505
sI1122
I506
sI1123
I507
sI1124
I508
sI1125
I509
sI1126
I510
sI1127
I511
sI1128
I512
sI1129
I513
sI1130
I514
sI1131
I515
sI1132
I516
sI1133
I517
sI1134
I518
sI1135
I519
sI1136
I520
sI1137
I521
sI1138
I522
sI1139
I523
sI1140
I524
sI1141
I525
sI1142
I526
sI1143
I527
sI1144
I528
sI1145
I529
sI1146
I530
sI1147
I531
sI1148
I532
sI1149
I533
sI1150
I534
sI1151
I535
sI1152
I536
sI1153
I537
sI1154
I538
sI1155
I539
sI1156
I540
sI1157
I541
sI1158
I542
sI1159
I543
sI1160
I544
sI1161
I545
sI1162
I546
sI1163
I547
sI1164
I548
sI1165
I549
sI1166
I550
sI1167
I551
sI1168
I552
sI1169
I553
sI1170
I554
sI1171
I555
sI1172
I556
sI1173
I557
sI1174
I558
sI1175
I559
sI1176
I560
sI1177
I561
sI1178
I562
sI1179
I563
sI1180
I564
sI1181
I565
sI1182
I566
sI1183
I567
sI1184
I568
sI1185
I569
sI1186
I570
sI1187
I571
sI1188
I572
sI1189
I573
sI1190
I574
sI1191
I575
sI1192
I576
sI1193
I577
sI1194
I578
sI1195
I579
sI1196
I580
sI1197
I581
sI1198
I582
sI1199
I583
sI1200
I584
sI1201
I585
sI1202
I586
sI1203
I587
sI1204
I588
sI1205
I589
sI1206
I590
sI1207
I591
sI1208
I592
sI1209
I593
sI1210
I594
sI1211
I595
sI1212
I596
sI1213
I597
sI1214
I598
sI1215
I599
sI1216
I600
sI1217
I601
sI1218
I602
sI1219
I603
sI1220
I604
sI1221
I605
sI1222
I606
sI1223
I607
sI1224
I608
sI1225
I609
sI1226
I610
sI1227
I611
sI1228
I612
sI1229
I613
sI1230
I614
sI1231
I615
sI1232
I616
sI1233
I617
sI1234
I618
sI1235
I619
sI1236
I620
sI1237
I621
sI1238
I622
sI1239
I623
sI1240
I624
sI1241
I625
sI1242
I626
sI1243
I627
sI1244
I628
sI1245
I629
sI1246
I630
sI1247
I631
sI1248
I632
sI1249
I633
sI1250
I634
sI1251
I635
sI1252
I636
sI1253
I637
sI1254
I638
sI1255
I639
sI1256
I640
sI1275
I641
sI1276
I642
sI1277
I643
sI1278
I644
sI1279
I645
sI1280
I646
sI1281
I647
sI1282
I648
sI1283
I649
sI1284
I650
sI1285
I651
sI1286
I652
sI1287
I653
sI1288
I654
sI1289
I655
sI1290
I656
sI1291
I657
sI1292
I658
sI1293
I659
sI1294
I660
sI1295
I661
sI1296
I662
sI1300
I663
sI1301
I664
sI1302
I665
sI1303
I666
sI1305
I667
sI1306
I668
sI1307
I669
sI1308
I670
sI1309
I671
sI1310
I672
sI1311
I673
sI1312
I674
sI1313
I675
sI1315
I676
sI1316
I677
sI1317
I678
sI1318
I679
sI1319
I680
sI1320
I681
sI1321
I682
sI1322
I683
sI1323
I684
sI1324
I685
sI1325
I686
sI1326
I687
sI1327
I688
sI1328
I689
sI1329
I690
sI1330
I691
sI1331
I692
sI1332
I693
sI1333
I694
sI1334
I695
sI1335
I696
sI1336
I697
sI1337
I698
sI1338
I699
sI1339
I700
sI1341
I701
sI1342
I702
sI1343
I703
sI1344
I704
sI1345
I705
sI1346
I706
sI1347
I707
sI1348
I708
sI1349
I709
sI1350
I710
sI1351
I711
sI1352
I712
sI1353
I713
sI1354
I714
sI1355
I715
sI1356
I716
sI1357
I717
sI1358
I718
sI1359
I719
sI1414
I720
sI1415
I721
sI1416
I722
sI1417
I723
sI1418
I724
sI1419
I725
sI1420
I726
sI1421
I727
sI1422
I728
sI1423
I729
sI1424
I730
sI1425
I731
sI1426
I732
sI1427
I733
sI1428
I734
sI1429
I735
sI1430
I736
sI1431
I737
sI1432
I738
sI1433
I739
sI1434
I740
sI1435
I741
sI1436
I742
sI1437
I743
sI1438
I744
sI1439
I745
sI1440
I746
sI1441
I747
sI1442
I748
sI1443
I749
sI1444
I750
sI1445
I751
sI1446
I752
sI1447
I753
sI1448
I754
sI1449
I755
sI1450
I756
sI1451
I757
sI1452
I758
sI1453
I759
sI1454
I760
sI1455
I761
sI1456
I762
sI1457
I763
sI1458
I764
sI1459
I765
sI1460
I766
sI1461
I767
sI1462
I768
sI1463
I769
sI1464
I770
sI1465
I771
sI1466
I772
sI1467
I773
sI1468
I774
sI1469
I775
sI1470
I776
sI1471
I777
sI1472
I778
sI1473
I779
sI1474
I780
sI1475
I781
sI1476
I782
sI1477
I783
sI1478
I784
sI1479
I785
sI1480
I786
sI1481
I787
s.